target datalayout = "e-m:e-p270:32:32-p271:32:32-p272:64:64-i64:64-i128:128-f80:128-n8:16:32:64-S128"
target triple = "x86_64-pc-linux-gnu"

%struct.handler_t = type { ptr, ptr, ptr }
%struct.subset_t = type { %struct.subset_d, %struct.subset_d, %struct.subset_d, %struct.subset_d }
%struct.subset_d = type { ptr, i32 }

; Function Attrs: nounwind uwtable
define internal void @free_handler(ptr noundef %0, i32 noundef %1) #0 {
  %3 = alloca ptr, align 8
  %4 = alloca i32, align 4
  %5 = alloca i32, align 4
  store ptr %0, ptr %3, align 8
  store i32 %1, ptr %4, align 4
  %6 = load ptr, ptr %3, align 8
  %7 = icmp ne ptr %6, null
  br i1 %7, label %8, label %143

8:                                                ; preds = %2
  store i32 0, ptr %5, align 4
  br label %9

9:                                                ; preds = %138, %8
  %10 = load i32, ptr %5, align 4
  %11 = load i32, ptr %4, align 4
  %12 = icmp slt i32 %10, %11
  br i1 %12, label %13, label %141

13:                                               ; preds = %9
  %14 = load ptr, ptr %3, align 8
  %15 = load i32, ptr %5, align 4
  %16 = sext i32 %15 to i64
  %17 = getelementptr inbounds %struct.handler_t, ptr %14, i64 %16
  %18 = getelementptr inbounds %struct.handler_t, ptr %17, i32 0, i32 1
  %19 = load ptr, ptr %18, align 8
  %20 = icmp ne ptr %19, null
  br i1 %20, label %21, label %33

21:                                               ; preds = %13
  %22 = load ptr, ptr %3, align 8
  %23 = load i32, ptr %5, align 4
  %24 = sext i32 %23 to i64
  %25 = getelementptr inbounds %struct.handler_t, ptr %22, i64 %24
  %26 = getelementptr inbounds %struct.handler_t, ptr %25, i32 0, i32 1
  %27 = load ptr, ptr %26, align 8
  call void @free(ptr noundef %27) #11
  %28 = load ptr, ptr %3, align 8
  %29 = load i32, ptr %5, align 4
  %30 = sext i32 %29 to i64
  %31 = getelementptr inbounds %struct.handler_t, ptr %28, i64 %30
  %32 = getelementptr inbounds %struct.handler_t, ptr %31, i32 0, i32 1
  store ptr null, ptr %32, align 8
  br label %33

33:                                               ; preds = %21, %13
  %34 = load ptr, ptr %3, align 8
  %35 = load i32, ptr %5, align 4
  %36 = sext i32 %35 to i64
  %37 = getelementptr inbounds %struct.handler_t, ptr %34, i64 %36
  %38 = getelementptr inbounds %struct.handler_t, ptr %37, i32 0, i32 2
  %39 = load ptr, ptr %38, align 8
  %40 = icmp ne ptr %39, null
  br i1 %40, label %41, label %137

41:                                               ; preds = %33
  %42 = load ptr, ptr %3, align 8
  %43 = load i32, ptr %5, align 4
  %44 = sext i32 %43 to i64
  %45 = getelementptr inbounds %struct.handler_t, ptr %42, i64 %44
  %46 = getelementptr inbounds %struct.handler_t, ptr %45, i32 0, i32 2
  %47 = load ptr, ptr %46, align 8
  %48 = getelementptr inbounds %struct.subset_t, ptr %47, i32 0, i32 0
  %49 = getelementptr inbounds %struct.subset_d, ptr %48, i32 0, i32 0
  %50 = load ptr, ptr %49, align 8
  %51 = icmp ne ptr %50, null
  br i1 %51, label %52, label %62

52:                                               ; preds = %41
  %53 = load ptr, ptr %3, align 8
  %54 = load i32, ptr %5, align 4
  %55 = sext i32 %54 to i64
  %56 = getelementptr inbounds %struct.handler_t, ptr %53, i64 %55
  %57 = getelementptr inbounds %struct.handler_t, ptr %56, i32 0, i32 2
  %58 = load ptr, ptr %57, align 8
  %59 = getelementptr inbounds %struct.subset_t, ptr %58, i32 0, i32 0
  %60 = getelementptr inbounds %struct.subset_d, ptr %59, i32 0, i32 0
  %61 = load ptr, ptr %60, align 8
  call void @free(ptr noundef %61) #11
  br label %62

62:                                               ; preds = %52, %41
  %63 = load ptr, ptr %3, align 8
  %64 = load i32, ptr %5, align 4
  %65 = sext i32 %64 to i64
  %66 = getelementptr inbounds %struct.handler_t, ptr %63, i64 %65
  %67 = getelementptr inbounds %struct.handler_t, ptr %66, i32 0, i32 2
  %68 = load ptr, ptr %67, align 8
  %69 = getelementptr inbounds %struct.subset_t, ptr %68, i32 0, i32 1
  %70 = getelementptr inbounds %struct.subset_d, ptr %69, i32 0, i32 0
  %71 = load ptr, ptr %70, align 8
  %72 = icmp ne ptr %71, null
  br i1 %72, label %73, label %83

73:                                               ; preds = %62
  %74 = load ptr, ptr %3, align 8
  %75 = load i32, ptr %5, align 4
  %76 = sext i32 %75 to i64
  %77 = getelementptr inbounds %struct.handler_t, ptr %74, i64 %76
  %78 = getelementptr inbounds %struct.handler_t, ptr %77, i32 0, i32 2
  %79 = load ptr, ptr %78, align 8
  %80 = getelementptr inbounds %struct.subset_t, ptr %79, i32 0, i32 1
  %81 = getelementptr inbounds %struct.subset_d, ptr %80, i32 0, i32 0
  %82 = load ptr, ptr %81, align 8
  call void @free(ptr noundef %82) #11
  br label %83

83:                                               ; preds = %73, %62
  %84 = load ptr, ptr %3, align 8
  %85 = load i32, ptr %5, align 4
  %86 = sext i32 %85 to i64
  %87 = getelementptr inbounds %struct.handler_t, ptr %84, i64 %86
  %88 = getelementptr inbounds %struct.handler_t, ptr %87, i32 0, i32 2
  %89 = load ptr, ptr %88, align 8
  %90 = getelementptr inbounds %struct.subset_t, ptr %89, i32 0, i32 2
  %91 = getelementptr inbounds %struct.subset_d, ptr %90, i32 0, i32 0
  %92 = load ptr, ptr %91, align 8
  %93 = icmp ne ptr %92, null
  br i1 %93, label %94, label %104

94:                                               ; preds = %83
  %95 = load ptr, ptr %3, align 8
  %96 = load i32, ptr %5, align 4
  %97 = sext i32 %96 to i64
  %98 = getelementptr inbounds %struct.handler_t, ptr %95, i64 %97
  %99 = getelementptr inbounds %struct.handler_t, ptr %98, i32 0, i32 2
  %100 = load ptr, ptr %99, align 8
  %101 = getelementptr inbounds %struct.subset_t, ptr %100, i32 0, i32 2
  %102 = getelementptr inbounds %struct.subset_d, ptr %101, i32 0, i32 0
  %103 = load ptr, ptr %102, align 8
  call void @free(ptr noundef %103) #11
  br label %104

104:                                              ; preds = %94, %83
  %105 = load ptr, ptr %3, align 8
  %106 = load i32, ptr %5, align 4
  %107 = sext i32 %106 to i64
  %108 = getelementptr inbounds %struct.handler_t, ptr %105, i64 %107
  %109 = getelementptr inbounds %struct.handler_t, ptr %108, i32 0, i32 2
  %110 = load ptr, ptr %109, align 8
  %111 = getelementptr inbounds %struct.subset_t, ptr %110, i32 0, i32 3
  %112 = getelementptr inbounds %struct.subset_d, ptr %111, i32 0, i32 0
  %113 = load ptr, ptr %112, align 8
  %114 = icmp ne ptr %113, null
  br i1 %114, label %115, label %125

115:                                              ; preds = %104
  %116 = load ptr, ptr %3, align 8
  %117 = load i32, ptr %5, align 4
  %118 = sext i32 %117 to i64
  %119 = getelementptr inbounds %struct.handler_t, ptr %116, i64 %118
  %120 = getelementptr inbounds %struct.handler_t, ptr %119, i32 0, i32 2
  %121 = load ptr, ptr %120, align 8
  %122 = getelementptr inbounds %struct.subset_t, ptr %121, i32 0, i32 3
  %123 = getelementptr inbounds %struct.subset_d, ptr %122, i32 0, i32 0
  %124 = load ptr, ptr %123, align 8
  call void @free(ptr noundef %124) #11
  br label %125

125:                                              ; preds = %115, %104
  %126 = load ptr, ptr %3, align 8
  %127 = load i32, ptr %5, align 4
  %128 = sext i32 %127 to i64
  %129 = getelementptr inbounds %struct.handler_t, ptr %126, i64 %128
  %130 = getelementptr inbounds %struct.handler_t, ptr %129, i32 0, i32 2
  %131 = load ptr, ptr %130, align 8
  call void @free(ptr noundef %131) #11
  %132 = load ptr, ptr %3, align 8
  %133 = load i32, ptr %5, align 4
  %134 = sext i32 %133 to i64
  %135 = getelementptr inbounds %struct.handler_t, ptr %132, i64 %134
  %136 = getelementptr inbounds %struct.handler_t, ptr %135, i32 0, i32 2
  store ptr null, ptr %136, align 8
  br label %137

137:                                              ; preds = %125, %33
  br label %138

138:                                              ; preds = %137
  %139 = load i32, ptr %5, align 4
  %140 = add nsw i32 %139, 1
  store i32 %140, ptr %5, align 4
  br label %9

141:                                              ; preds = %9
  %142 = load ptr, ptr %3, align 8
  call void @free(ptr noundef %142) #11
  br label %143

143:                                              ; preds = %141, %2
  ret void
}