; Function Attrs: nounwind uwtable
define internal fastcc void @free_handler(ptr noundef %0, i32 noundef %1) unnamed_addr #0 {
  %.not = icmp eq ptr %0, null
  br i1 %.not, label %32, label %.preheader

.preheader:                                       ; preds = %2
  %3 = icmp sgt i32 %1, 0
  br i1 %3, label %.lr.ph.preheader, label %._crit_edge

.lr.ph.preheader:                                 ; preds = %.preheader
  %wide.trip.count = zext nneg i32 %1 to i64
  br label %.lr.ph

.lr.ph:                                           ; preds = %.lr.ph.preheader, %31
  %indvars.iv = phi i64 [ 0, %.lr.ph.preheader ], [ %indvars.iv.next, %31 ]
  %4 = getelementptr inbounds %struct.handler_t, ptr %0, i64 %indvars.iv
  %5 = getelementptr inbounds i8, ptr %4, i64 8
  %6 = load ptr, ptr %5, align 8
  %.not39 = icmp eq ptr %6, null
  br i1 %.not39, label %8, label %7

7:                                                ; preds = %.lr.ph
  tail call void @free(ptr noundef nonnull %6) #22
  store ptr null, ptr %5, align 8
  br label %8

8:                                                ; preds = %7, %.lr.ph
  %9 = getelementptr inbounds i8, ptr %4, i64 16
  %10 = load ptr, ptr %9, align 8
  %.not40 = icmp eq ptr %10, null
  br i1 %.not40, label %31, label %11

11:                                               ; preds = %8
  %12 = load ptr, ptr %10, align 8
  %.not41 = icmp eq ptr %12, null
  br i1 %.not41, label %14, label %13

13:                                               ; preds = %11
  tail call void @free(ptr noundef nonnull %12) #22
  %.pre = load ptr, ptr %9, align 8
  br label %14

14:                                               ; preds = %13, %11
  %15 = phi ptr [ %.pre, %13 ], [ %10, %11 ]
  %16 = getelementptr inbounds i8, ptr %15, i64 16
  %17 = load ptr, ptr %16, align 8
  %.not42 = icmp eq ptr %17, null
  br i1 %.not42, label %19, label %18

18:                                               ; preds = %14
  tail call void @free(ptr noundef nonnull %17) #22
  %.pre47 = load ptr, ptr %9, align 8
  br label %19

19:                                               ; preds = %18, %14
  %20 = phi ptr [ %.pre47, %18 ], [ %15, %14 ]
  %21 = getelementptr inbounds i8, ptr %20, i64 32
  %22 = load ptr, ptr %21, align 8
  %.not43 = icmp eq ptr %22, null
  br i1 %.not43, label %24, label %23

23:                                               ; preds = %19
  tail call void @free(ptr noundef nonnull %22) #22
  %.pre48 = load ptr, ptr %9, align 8
  br label %24

24:                                               ; preds = %23, %19
  %25 = phi ptr [ %.pre48, %23 ], [ %20, %19 ]
  %26 = getelementptr inbounds i8, ptr %25, i64 48
  %27 = load ptr, ptr %26, align 8
  %.not44 = icmp eq ptr %27, null
  br i1 %.not44, label %29, label %28

28:                                               ; preds = %24
  tail call void @free(ptr noundef nonnull %27) #22
  %.pre49 = load ptr, ptr %9, align 8
  br label %29

29:                                               ; preds = %28, %24
  %30 = phi ptr [ %.pre49, %28 ], [ %25, %24 ]
  tail call void @free(ptr noundef %30) #22
  store ptr null, ptr %9, align 8
  br label %31

31:                                               ; preds = %8, %29
  %indvars.iv.next = add nuw nsw i64 %indvars.iv, 1
  %exitcond.not = icmp eq i64 %indvars.iv.next, %wide.trip.count
  br i1 %exitcond.not, label %._crit_edge, label %.lr.ph

._crit_edge:                                      ; preds = %31, %.preheader
  tail call void @free(ptr noundef nonnull %0) #22
  br label %32

32:                                               ; preds = %._crit_edge, %2
  ret void
}